; Function Attrs: nofree nounwind uwtable
define noalias noundef ptr @Tim_ManAlignTwo(ptr noundef readonly captures(none) %0, ptr noundef readonly captures(none) %1) local_unnamed_addr #8 {
  %3 = load ptr, ptr %1, align 8
  %4 = getelementptr i8, ptr %3, i64 4
  %.val21 = load i32, ptr %4, align 4
  %5 = icmp sgt i32 %.val21, 0
  br i1 %5, label %.lr.ph, label %.critedge

.lr.ph:                                           ; preds = %2
  %6 = getelementptr i8, ptr %3, i64 8
  %.val23 = load ptr, ptr %6, align 8
  %wide.trip.count = zext nneg i32 %.val21 to i64
  br label %8

7:                                                ; preds = %Tim_ManBoxNum.exit
  %indvars.iv.next = add nuw nsw i64 %indvars.iv, 1
  %exitcond.not = icmp eq i64 %indvars.iv.next, %wide.trip.count
  br i1 %exitcond.not, label %.critedge.thread, label %8, !llvm.loop !24

8:                                                ; preds = %.lr.ph, %7
  %indvars.iv = phi i64 [ 0, %.lr.ph ], [ %indvars.iv.next, %7 ]
  %9 = getelementptr inbounds nuw ptr, ptr %.val23, i64 %indvars.iv
  %10 = load ptr, ptr %9, align 8
  %11 = getelementptr inbounds nuw i8, ptr %10, i64 20
  %12 = load i32, ptr %11, align 4
  %13 = icmp slt i32 %12, 0
  br i1 %13, label %.critedge2, label %14

14:                                               ; preds = %8
  %15 = load ptr, ptr %0, align 8
  %.not.i = icmp eq ptr %15, null
  br i1 %.not.i, label %.critedge2, label %Tim_ManBoxNum.exit

Tim_ManBoxNum.exit:                               ; preds = %14
  %16 = getelementptr i8, ptr %15, i64 4
  %.val.i = load i32, ptr %16, align 4
  %.not = icmp slt i32 %12, %.val.i
  br i1 %.not, label %7, label %.critedge2

.critedge:                                        ; preds = %2
  %.pre = load ptr, ptr %0, align 8
  %.not.i25 = icmp eq ptr %.pre, null
  br i1 %.not.i25, label %Tim_ManBoxNum.exit27, label %.critedge.thread

.critedge.thread:                                 ; preds = %7, %.critedge
  %17 = phi ptr [ %.pre, %.critedge ], [ %15, %7 ]
  %18 = getelementptr i8, ptr %17, i64 4
  %.val.i26 = load i32, ptr %18, align 4
  br label %Tim_ManBoxNum.exit27

Tim_ManBoxNum.exit27:                             ; preds = %.critedge, %.critedge.thread
  %19 = phi i32 [ %.val.i26, %.critedge.thread ], [ 0, %.critedge ]
  %20 = tail call noalias dereferenceable_or_null(16) ptr @malloc(i64 noundef 16) #19
  %21 = add i32 %19, -1
  %or.cond.i.i = icmp ult i32 %21, 15
  %spec.store.select.i.i = select i1 %or.cond.i.i, i32 16, i32 %19
  %22 = getelementptr inbounds nuw i8, ptr %20, i64 4
  store i32 %spec.store.select.i.i, ptr %20, align 8
  %.not.i.i = icmp eq i32 %spec.store.select.i.i, 0
  br i1 %.not.i.i, label %Vec_IntAlloc.exit.thread.i, label %Vec_IntAlloc.exit.i

Vec_IntAlloc.exit.thread.i:                       ; preds = %Tim_ManBoxNum.exit27
  %23 = getelementptr inbounds nuw i8, ptr %20, i64 8
  store ptr null, ptr %23, align 8
  store i32 %19, ptr %22, align 4
  br label %Vec_IntStart.exit

Vec_IntAlloc.exit.i:                              ; preds = %Tim_ManBoxNum.exit27
  %24 = sext i32 %spec.store.select.i.i to i64
  %25 = shl nsw i64 %24, 2
  %26 = tail call noalias ptr @malloc(i64 noundef %25) #19
  %27 = getelementptr inbounds nuw i8, ptr %20, i64 8
  store ptr %26, ptr %27, align 8
  store i32 %19, ptr %22, align 4
  %.not.i28 = icmp eq ptr %26, null
  br i1 %.not.i28, label %Vec_IntStart.exit, label %28

28:                                               ; preds = %Vec_IntAlloc.exit.i
  %29 = sext i32 %19 to i64
  %30 = shl nsw i64 %29, 2
  tail call void @llvm.memset.p0.i64(ptr nonnull align 4 %26, i8 0, i64 %30, i1 false)
  br label %Vec_IntStart.exit

Vec_IntStart.exit:                                ; preds = %Vec_IntAlloc.exit.thread.i, %Vec_IntAlloc.exit.i, %28
  %.val24 = phi ptr [ null, %Vec_IntAlloc.exit.thread.i ], [ null, %Vec_IntAlloc.exit.i ], [ %26, %28 ]
  br i1 %5, label %.lr.ph34, label %.critedge2

.lr.ph34:                                         ; preds = %Vec_IntStart.exit
  %.phi.trans.insert = getelementptr i8, ptr %3, i64 8
  %.val22.pre = load ptr, ptr %.phi.trans.insert, align 8
  %31 = zext nneg i32 %.val21 to i64
  br label %32

32:                                               ; preds = %.lr.ph34, %32
  %indvars.iv37 = phi i64 [ 0, %.lr.ph34 ], [ %indvars.iv.next38, %32 ]
  %33 = getelementptr inbounds nuw ptr, ptr %.val22.pre, i64 %indvars.iv37
  %34 = load ptr, ptr %33, align 8
  %35 = getelementptr inbounds nuw i8, ptr %34, i64 20
  %36 = load i32, ptr %35, align 4
  %37 = sext i32 %36 to i64
  %38 = getelementptr inbounds i32, ptr %.val24, i64 %37
  store i32 1, ptr %38, align 4
  %indvars.iv.next38 = add nuw nsw i64 %indvars.iv37, 1
  %39 = icmp samesign ult i64 %indvars.iv.next38, %31
  br i1 %39, label %32, label %.critedge2, !llvm.loop !25

.critedge2:                                       ; preds = %14, %8, %Tim_ManBoxNum.exit, %32, %Vec_IntStart.exit
  %.019 = phi ptr [ %20, %Vec_IntStart.exit ], [ %20, %32 ], [ null, %Tim_ManBoxNum.exit ], [ null, %8 ], [ null, %14 ]
  ret ptr %.019
}